; ModuleID = '46/2682.c'
source_filename = "46/2682.c"
target datalayout = "e-m:e-p270:32:32-p271:32:32-p272:64:64-i64:64-f80:128-n8:16:32:64-S128"
target triple = "x86_64-pc-linux-gnu"

@.str = private unnamed_addr constant [5 x i8] c"%d%d\00", align 1
@.str.1 = private unnamed_addr constant [3 x i8] c"%d\00", align 1
@.str.2 = private unnamed_addr constant [4 x i8] c"%d\0A\00", align 1

; Function Attrs: noinline nounwind uwtable
define dso_local i32 @min(i32 %0, i32 %1) #0 {
  %3 = alloca i32, align 4
  %4 = alloca i32, align 4
  %5 = alloca i32, align 4
  store i32 %0, i32* %3, align 4
  store i32 %1, i32* %4, align 4
  %6 = load i32, i32* %3, align 4
  %7 = load i32, i32* %4, align 4
  %8 = icmp slt i32 %6, %7
  br i1 %8, label %9, label %11

9:                                                ; preds = %2
  %10 = load i32, i32* %3, align 4
  store i32 %10, i32* %5, align 4
  br label %13

11:                                               ; preds = %2
  %12 = load i32, i32* %4, align 4
  store i32 %12, i32* %5, align 4
  br label %13

13:                                               ; preds = %11, %9
  %14 = load i32, i32* %5, align 4
  ret i32 %14
}

; Function Attrs: noinline nounwind uwtable
define dso_local void @main() #0 {
  %1 = alloca i32, align 4
  %2 = alloca i32, align 4
  %3 = alloca i32, align 4
  %4 = alloca i32, align 4
  %5 = alloca i32, align 4
  %6 = alloca i32, align 4
  %7 = alloca i32, align 4
  %8 = alloca i32, align 4
  %9 = alloca i32, align 4
  %10 = alloca i32, align 4
  %11 = alloca [100 x [100 x i32]], align 16
  %12 = call i32 (i8*, ...) @__isoc99_scanf(i8* getelementptr inbounds ([5 x i8], [5 x i8]* @.str, i64 0, i64 0), i32* %6, i32* %7)
  store i32 0, i32* %2, align 4
  br label %13

13:                                               ; preds = %34, %0
  %14 = load i32, i32* %2, align 4
  %15 = load i32, i32* %6, align 4
  %16 = icmp slt i32 %14, %15
  br i1 %16, label %17, label %37

17:                                               ; preds = %13
  store i32 0, i32* %3, align 4
  br label %18

18:                                               ; preds = %30, %17
  %19 = load i32, i32* %3, align 4
  %20 = load i32, i32* %7, align 4
  %21 = icmp slt i32 %19, %20
  br i1 %21, label %22, label %33

22:                                               ; preds = %18
  %23 = load i32, i32* %2, align 4
  %24 = sext i32 %23 to i64
  %25 = getelementptr inbounds [100 x [100 x i32]], [100 x [100 x i32]]* %11, i64 0, i64 %24
  %26 = load i32, i32* %3, align 4
  %27 = sext i32 %26 to i64
  %28 = getelementptr inbounds [100 x i32], [100 x i32]* %25, i64 0, i64 %27
  %29 = call i32 (i8*, ...) @__isoc99_scanf(i8* getelementptr inbounds ([3 x i8], [3 x i8]* @.str.1, i64 0, i64 0), i32* %28)
  br label %30

30:                                               ; preds = %22
  %31 = load i32, i32* %3, align 4
  %32 = add nsw i32 %31, 1
  store i32 %32, i32* %3, align 4
  br label %18

33:                                               ; preds = %18
  br label %34

34:                                               ; preds = %33
  %35 = load i32, i32* %2, align 4
  %36 = add nsw i32 %35, 1
  store i32 %36, i32* %2, align 4
  br label %13

37:                                               ; preds = %13
  %38 = load i32, i32* %6, align 4
  %39 = load i32, i32* %7, align 4
  %40 = call i32 @min(i32 %38, i32 %39)
  store i32 %40, i32* %8, align 4
  store i32 0, i32* %2, align 4
  br label %41

41:                                               ; preds = %169, %37
  %42 = load i32, i32* %6, align 4
  %43 = load i32, i32* %2, align 4
  %44 = mul nsw i32 2, %43
  %45 = sub nsw i32 %42, %44
  %46 = icmp sgt i32 %45, 0
  br i1 %46, label %47, label %53

47:                                               ; preds = %41
  %48 = load i32, i32* %7, align 4
  %49 = load i32, i32* %2, align 4
  %50 = mul nsw i32 2, %49
  %51 = sub nsw i32 %48, %50
  %52 = icmp sgt i32 %51, 0
  br label %53

53:                                               ; preds = %47, %41
  %54 = phi i1 [ false, %41 ], [ %52, %47 ]
  br i1 %54, label %55, label %172

55:                                               ; preds = %53
  store i32 0, i32* %9, align 4
  store i32 0, i32* %10, align 4
  %56 = load i32, i32* %6, align 4
  %57 = load i32, i32* %2, align 4
  %58 = mul nsw i32 2, %57
  %59 = sub nsw i32 %56, %58
  %60 = icmp eq i32 %59, 1
  br i1 %60, label %61, label %62

61:                                               ; preds = %55
  store i32 1, i32* %9, align 4
  br label %62

62:                                               ; preds = %61, %55
  %63 = load i32, i32* %7, align 4
  %64 = load i32, i32* %2, align 4
  %65 = mul nsw i32 2, %64
  %66 = sub nsw i32 %63, %65
  %67 = icmp eq i32 %66, 1
  br i1 %67, label %68, label %69

68:                                               ; preds = %62
  store i32 1, i32* %10, align 4
  br label %69

69:                                               ; preds = %68, %62
  %70 = load i32, i32* %2, align 4
  store i32 %70, i32* %3, align 4
  br label %71

71:                                               ; preds = %86, %69
  %72 = load i32, i32* %3, align 4
  %73 = load i32, i32* %7, align 4
  %74 = load i32, i32* %2, align 4
  %75 = sub nsw i32 %73, %74
  %76 = icmp slt i32 %72, %75
  br i1 %76, label %77, label %89

77:                                               ; preds = %71
  %78 = load i32, i32* %2, align 4
  %79 = sext i32 %78 to i64
  %80 = getelementptr inbounds [100 x [100 x i32]], [100 x [100 x i32]]* %11, i64 0, i64 %79
  %81 = load i32, i32* %3, align 4
  %82 = sext i32 %81 to i64
  %83 = getelementptr inbounds [100 x i32], [100 x i32]* %80, i64 0, i64 %82
  %84 = load i32, i32* %83, align 4
  %85 = call i32 (i8*, ...) @printf(i8* getelementptr inbounds ([4 x i8], [4 x i8]* @.str.2, i64 0, i64 0), i32 %84)
  br label %86

86:                                               ; preds = %77
  %87 = load i32, i32* %3, align 4
  %88 = add nsw i32 %87, 1
  store i32 %88, i32* %3, align 4
  br label %71

89:                                               ; preds = %71
  %90 = load i32, i32* %2, align 4
  %91 = add nsw i32 %90, 1
  store i32 %91, i32* %3, align 4
  br label %92

92:                                               ; preds = %111, %89
  %93 = load i32, i32* %3, align 4
  %94 = load i32, i32* %6, align 4
  %95 = load i32, i32* %2, align 4
  %96 = sub nsw i32 %94, %95
  %97 = sub nsw i32 %96, 1
  %98 = icmp slt i32 %93, %97
  br i1 %98, label %99, label %114

99:                                               ; preds = %92
  %100 = load i32, i32* %3, align 4
  %101 = sext i32 %100 to i64
  %102 = getelementptr inbounds [100 x [100 x i32]], [100 x [100 x i32]]* %11, i64 0, i64 %101
  %103 = load i32, i32* %7, align 4
  %104 = sub nsw i32 %103, 1
  %105 = load i32, i32* %2, align 4
  %106 = sub nsw i32 %104, %105
  %107 = sext i32 %106 to i64
  %108 = getelementptr inbounds [100 x i32], [100 x i32]* %102, i64 0, i64 %107
  %109 = load i32, i32* %108, align 4
  %110 = call i32 (i8*, ...) @printf(i8* getelementptr inbounds ([4 x i8], [4 x i8]* @.str.2, i64 0, i64 0), i32 %109)
  br label %111

111:                                              ; preds = %99
  %112 = load i32, i32* %3, align 4
  %113 = add nsw i32 %112, 1
  store i32 %113, i32* %3, align 4
  br label %92

114:                                              ; preds = %92
  %115 = load i32, i32* %7, align 4
  %116 = sub nsw i32 %115, 1
  %117 = load i32, i32* %2, align 4
  %118 = sub nsw i32 %116, %117
  store i32 %118, i32* %3, align 4
  br label %119

119:                                              ; preds = %140, %114
  %120 = load i32, i32* %3, align 4
  %121 = load i32, i32* %2, align 4
  %122 = sub nsw i32 %121, 1
  %123 = icmp sgt i32 %120, %122
  br i1 %123, label %124, label %143

124:                                              ; preds = %119
  %125 = load i32, i32* %9, align 4
  %126 = icmp eq i32 %125, 1
  br i1 %126, label %127, label %128

127:                                              ; preds = %124
  br label %143

128:                                              ; preds = %124
  %129 = load i32, i32* %6, align 4
  %130 = sub nsw i32 %129, 1
  %131 = load i32, i32* %2, align 4
  %132 = sub nsw i32 %130, %131
  %133 = sext i32 %132 to i64
  %134 = getelementptr inbounds [100 x [100 x i32]], [100 x [100 x i32]]* %11, i64 0, i64 %133
  %135 = load i32, i32* %3, align 4
  %136 = sext i32 %135 to i64
  %137 = getelementptr inbounds [100 x i32], [100 x i32]* %134, i64 0, i64 %136
  %138 = load i32, i32* %137, align 4
  %139 = call i32 (i8*, ...) @printf(i8* getelementptr inbounds ([4 x i8], [4 x i8]* @.str.2, i64 0, i64 0), i32 %138)
  br label %140

140:                                              ; preds = %128
  %141 = load i32, i32* %3, align 4
  %142 = add nsw i32 %141, -1
  store i32 %142, i32* %3, align 4
  br label %119

143:                                              ; preds = %127, %119
  %144 = load i32, i32* %6, align 4
  %145 = sub nsw i32 %144, 2
  %146 = load i32, i32* %2, align 4
  %147 = sub nsw i32 %145, %146
  store i32 %147, i32* %3, align 4
  br label %148

148:                                              ; preds = %165, %143
  %149 = load i32, i32* %3, align 4
  %150 = load i32, i32* %2, align 4
  %151 = icmp sgt i32 %149, %150
  br i1 %151, label %152, label %168

152:                                              ; preds = %148
  %153 = load i32, i32* %10, align 4
  %154 = icmp eq i32 %153, 1
  br i1 %154, label %155, label %156

155:                                              ; preds = %152
  br label %168

156:                                              ; preds = %152
  %157 = load i32, i32* %3, align 4
  %158 = sext i32 %157 to i64
  %159 = getelementptr inbounds [100 x [100 x i32]], [100 x [100 x i32]]* %11, i64 0, i64 %158
  %160 = load i32, i32* %2, align 4
  %161 = sext i32 %160 to i64
  %162 = getelementptr inbounds [100 x i32], [100 x i32]* %159, i64 0, i64 %161
  %163 = load i32, i32* %162, align 4
  %164 = call i32 (i8*, ...) @printf(i8* getelementptr inbounds ([4 x i8], [4 x i8]* @.str.2, i64 0, i64 0), i32 %163)
  br label %165

165:                                              ; preds = %156
  %166 = load i32, i32* %3, align 4
  %167 = add nsw i32 %166, -1
  store i32 %167, i32* %3, align 4
  br label %148

168:                                              ; preds = %155, %148
  br label %169

169:                                              ; preds = %168
  %170 = load i32, i32* %2, align 4
  %171 = add nsw i32 %170, 1
  store i32 %171, i32* %2, align 4
  br label %41

172:                                              ; preds = %53
  ret void
}

declare dso_local i32 @__isoc99_scanf(i8*, ...) #1

declare dso_local i32 @printf(i8*, ...) #1


!llvm.module.flags = !{!0}
!llvm.ident = !{!1}

!0 = !{i32 1, !"wchar_size", i32 4}
!1 = !{!"clang version 10.0.0-4ubuntu1 "}
